(lp1
(S'01:34'
p2
(lp3
(S'/main/imgsettings/iso'
S'1'
tp4
a(S'/main/actions/viewfinder'
S'1'
tp5
atp6
a(S'01:24'
p7
(lp8
(S'/main/imgsettings/iso'
S'1'
tp9
a(S'/main/actions/viewfinder'
S'1'
tp10
a(S'/main/actions/viewfinder'
S'1'
tp11
a(S'/main/actions/viewfinder'
S'1'
tp12
a(S'/main/actions/viewfinder'
S'1'
tp13
atp14
a(S'01:50'
p15
(lp16
(S'/main/imgsettings/iso'
S'1'
tp17
a(S'/main/actions/viewfinder'
S'1'
tp18
atp19
a(S'01:51'
p20
(lp21
(S'/main/imgsettings/iso'
S'1'
tp22
a(S'/main/actions/viewfinder'
S'1'
tp23
atp24
a(S'01:52'
p25
(lp26
(S'/main/imgsettings/iso'
S'1'
tp27
a(S'/main/actions/viewfinder'
S'1'
tp28
atp29
a(S'01:53'
p30
(lp31
(S'/main/imgsettings/iso'
S'1'
tp32
a(S'/main/actions/viewfinder'
S'1'
tp33
atp34
a(S'01:54'
p35
(lp36
(S'/main/imgsettings/iso'
S'1'
tp37
a(S'/main/actions/viewfinder'
S'1'
tp38
atp39
a(S'01:55'
p40
(lp41
(S'/main/imgsettings/iso'
S'1'
tp42
a(S'/main/actions/viewfinder'
S'1'
tp43
atp44
a(S'01:56'
p45
(lp46
(S'/main/imgsettings/iso'
S'1'
tp47
a(S'/main/actions/viewfinder'
S'1'
tp48
atp49
a(S'01:57'
p50
(lp51
(S'/main/imgsettings/iso'
S'1'
tp52
a(S'/main/actions/viewfinder'
S'1'
tp53
atp54
a(S'01:58'
p55
(lp56
(S'/main/imgsettings/iso'
S'1'
tp57
a(S'/main/actions/viewfinder'
S'1'
tp58
atp59
a(S'01:59'
p60
(lp61
(S'/main/imgsettings/iso'
S'1'
tp62
a(S'/main/actions/viewfinder'
S'1'
tp63
a(S'/main/actions/viewfinder'
S'1'
tp64
a(S'/main/actions/viewfinder'
S'1'
tp65
a(S'/main/actions/viewfinder'
S'1'
tp66
atp67
a(S'07:20'
p68
(lp69
(S'/main/imgsettings/iso'
S'1'
tp70
a(S'/main/actions/viewfinder'
S'1'
tp71
a(S'/main/actions/viewfinder'
S'1'
tp72
a(S'/main/actions/viewfinder'
S'1'
tp73
a(S'/main/actions/viewfinder'
S'1'
tp74
atp75
a.